target datalayout = "e-m:e-p270:32:32-p271:32:32-p272:64:64-i64:64-i128:128-f80:128-n8:16:32:64-S128"
target triple = "x86_64-pc-linux-gnu"

@mainctx = internal global ptr null, align 8
@.str.28 = private unnamed_addr constant [34 x i8] c"../openssl/test/evp_extra_test2.c\00", align 1
@.str.29 = private unnamed_addr constant [53 x i8] c"md = EVP_MD_fetch(mainctx, \22SHA256:BogusName\22, NULL)\00", align 1
@.str.30 = private unnamed_addr constant [17 x i8] c"SHA256:BogusName\00", align 1

; Function Attrs: nounwind uwtable
define internal i32 @evp_test_name_parsing() #0 {
  %1 = alloca i32, align 4
  %2 = alloca ptr, align 8
  %3 = alloca i32, align 4
  call void @llvm.lifetime.start.p0(i64 8, ptr %2) #7
  %4 = load ptr, ptr @mainctx, align 8, !tbaa !4
  %5 = call ptr @EVP_MD_fetch(ptr noundef %4, ptr noundef @.str.30, ptr noundef null)
  store ptr %5, ptr %2, align 8, !tbaa !9
  %6 = call i32 @test_ptr_null(ptr noundef @.str.28, i32 noundef 1433, ptr noundef @.str.29, ptr noundef %5)
  %7 = icmp ne i32 %6, 0
  br i1 %7, label %10, label %8

8:                                                ; preds = %0
  %9 = load ptr, ptr %2, align 8, !tbaa !9
  call void @EVP_MD_free(ptr noundef %9)
  store i32 0, ptr %1, align 4
  store i32 1, ptr %3, align 4
  br label %11

10:                                               ; preds = %0
  store i32 1, ptr %1, align 4
  store i32 1, ptr %3, align 4
  br label %11

11:                                               ; preds = %10, %8
  call void @llvm.lifetime.end.p0(i64 8, ptr %2) #7
  %12 = load i32, ptr %1, align 4
  ret i32 %12
}