; Function Attrs: nounwind uwtable
define internal range(i32 0, 2) i32 @evp_test_name_parsing() #0 {
  %1 = load ptr, ptr @mainctx, align 8, !tbaa !4
  %2 = tail call ptr @EVP_MD_fetch(ptr noundef %1, ptr noundef nonnull @.str.30, ptr noundef null) #7
  %3 = tail call i32 @test_ptr_null(ptr noundef nonnull @.str.28, i32 noundef 1433, ptr noundef nonnull @.str.29, ptr noundef %2) #7
  %.not = icmp eq i32 %3, 0
  br i1 %.not, label %4, label %5

4:                                                ; preds = %0
  tail call void @EVP_MD_free(ptr noundef %2) #7
  br label %5

5:                                                ; preds = %0, %4
  %.0 = phi i32 [ 0, %4 ], [ 1, %0 ]
  ret i32 %.0
}